Certificate:
    Data:
        Version: 3 (0x2)
        Serial Number:
            16:fa:c4:12:4a:7a:77:b8:28:70:1f:db:2c:c8:0e:6b:db:32:16:85
        Signature Algorithm: sha256WithRSAEncryption
        Issuer: C = FR, ST = IDF, L = Paris, O = NodeOPCUA, CN = NodeOPCUA-TEST
        Validity
            Not Before: Feb  4 15:43:49 2020 GMT
            Not After : Jan 31 15:43:49 2035 GMT
        Subject: C = FR, ST = IDF, L = Paris, O = NodeOPCUA, CN = NodeOPCUA-TEST
        Subject Public Key Info:
            Public Key Algorithm: rsaEncryption
                RSA Public-Key: (2048 bit)
                Modulus:
                    00:ad:8a:7d:96:7e:91:8b:b3:11:6c:03:41:eb:e6:
                    bb:b8:7e:66:e8:2a:a6:86:55:da:a6:f6:d2:ee:a5:
                    07:ca:c9:b1:70:04:65:3e:e8:24:68:00:f1:0e:ad:
                    77:b3:47:0a:ef:2a:50:60:2d:b5:fb:85:88:c1:2a:
                    88:14:1b:8e:19:16:de:27:24:b8:f4:6d:85:db:9b:
                    71:15:b6:54:bd:5a:dc:8e:64:34:40:10:d4:3f:b2:
                    ee:68:bd:17:cc:42:91:08:ba:06:16:43:f7:8f:01:
                    2e:1c:01:da:55:c5:fd:9f:80:a4:fe:0a:19:8d:b4:
                    e6:9b:3f:65:8e:81:e7:c4:59:9d:07:7f:de:16:be:
                    f6:91:6f:07:7b:c3:ee:8b:f2:5a:b8:03:66:9d:55:
                    c2:4c:a9:8d:6b:af:51:0f:66:61:44:9c:ea:f5:ab:
                    95:16:fa:f4:70:2f:87:46:07:03:22:10:fc:d0:02:
                    50:cb:1d:f2:4c:95:a8:be:dc:17:52:0c:ab:03:05:
                    cc:38:e0:74:b9:7b:59:2c:94:5b:5c:19:0c:b7:1f:
                    a0:6e:de:2a:83:f2:1d:cf:f9:24:99:d0:4f:c4:ab:
                    64:2e:1f:c8:d9:e8:be:64:64:8b:b3:46:9d:9a:49:
                    53:5c:72:bd:f2:3a:af:0a:cb:6b:55:e6:02:2a:e8:
                    44:d3
                Exponent: 65537 (0x10001)
        X509v3 extensions:
            X509v3 Subject Key Identifier: 
                8C:3F:40:E0:92:1D:A1:CE:2C:19:3C:19:88:D6:6C:2A:93:34:83:42
            X509v3 Authority Key Identifier: 
                keyid:8C:3F:40:E0:92:1D:A1:CE:2C:19:3C:19:88:D6:6C:2A:93:34:83:42

            X509v3 Basic Constraints: critical
                CA:FALSE
            X509v3 Key Usage: 
                Digital Signature, Non Repudiation, Key Encipherment, Data Encipherment, Certificate Sign
            X509v3 Extended Key Usage: 
                TLS Web Client Authentication, TLS Web Server Authentication
            Netscape Comment: 
                Self-signed certificate generated by Node-OPCUA Certificate utility
            X509v3 Subject Alternative Name: 
                URI:urn:Muddasir:Node-OPCUA-Server, DNS:Muddasir
    Signature Algorithm: sha256WithRSAEncryption
         44:47:71:23:c8:20:d5:98:57:4c:82:1e:2b:b6:1c:b0:ab:45:
         78:97:38:27:33:93:17:77:c9:2a:8b:18:ae:c4:f3:f3:9d:0f:
         81:99:d1:22:10:52:0e:28:be:06:c9:d6:8c:e1:98:d1:00:8b:
         7c:f9:8e:e6:11:08:4a:4d:7b:94:0c:64:e8:64:c5:d0:5a:bb:
         21:1e:ad:b2:eb:e0:14:64:78:3b:59:e5:7e:6f:49:06:b1:e4:
         78:04:8d:d4:6a:58:43:2f:18:b9:76:b9:c0:1d:a3:ef:df:8d:
         e6:db:fa:6e:c6:2a:05:99:e7:d7:b9:f2:8a:cb:0c:3a:2d:39:
         21:1f:f9:ab:38:fe:d4:72:c2:00:3c:30:0c:18:c5:c1:a0:a8:
         4d:c3:7b:3e:5c:c7:b6:7e:6e:6b:c3:70:f9:00:5c:a5:0c:16:
         85:50:aa:2b:c4:98:d1:fb:0c:a6:8d:75:6c:55:17:16:2a:99:
         e2:4f:f0:f3:df:c4:f3:1b:00:30:48:e4:94:0a:cf:3d:fd:79:
         02:c3:a5:43:f9:af:2d:d0:c1:08:43:f7:60:5b:56:99:19:02:
         76:d6:9e:e7:9a:4e:fa:7e:8b:56:6f:66:cb:d4:88:4d:03:57:
         b5:2b:3f:b6:8e:a1:f8:7f:5a:a4:06:12:a3:37:32:8f:2b:6b:
         30:ee:56:ae
-----BEGIN CERTIFICATE-----
MIIERzCCAy+gAwIBAgIUFvrEEkp6d7gocB/bLMgOa9syFoUwDQYJKoZIhvcNAQEL
BQAwWDELMAkGA1UEBhMCRlIxDDAKBgNVBAgMA0lERjEOMAwGA1UEBwwFUGFyaXMx
EjAQBgNVBAoMCU5vZGVPUENVQTEXMBUGA1UEAwwOTm9kZU9QQ1VBLVRFU1QwHhcN
MjAwMjA0MTU0MzQ5WhcNMzUwMTMxMTU0MzQ5WjBYMQswCQYDVQQGEwJGUjEMMAoG
A1UECAwDSURGMQ4wDAYDVQQHDAVQYXJpczESMBAGA1UECgwJTm9kZU9QQ1VBMRcw
FQYDVQQDDA5Ob2RlT1BDVUEtVEVTVDCCASIwDQYJKoZIhvcNAQEBBQADggEPADCC
AQoCggEBAK2KfZZ+kYuzEWwDQevmu7h+ZugqpoZV2qb20u6lB8rJsXAEZT7oJGgA
8Q6td7NHCu8qUGAttfuFiMEqiBQbjhkW3ickuPRthdubcRW2VL1a3I5kNEAQ1D+y
7mi9F8xCkQi6BhZD948BLhwB2lXF/Z+ApP4KGY205ps/ZY6B58RZnQd/3ha+9pFv
B3vD7ovyWrgDZp1VwkypjWuvUQ9mYUSc6vWrlRb69HAvh0YHAyIQ/NACUMsd8kyV
qL7cF1IMqwMFzDjgdLl7WSyUW1wZDLcfoG7eKoPyHc/5JJnQT8SrZC4fyNnovmRk
i7NGnZpJU1xyvfI6rwrLa1XmAiroRNMCAwEAAaOCAQcwggEDMB0GA1UdDgQWBBSM
P0Dgkh2hziwZPBmI1mwqkzSDQjAfBgNVHSMEGDAWgBSMP0Dgkh2hziwZPBmI1mwq
kzSDQjAMBgNVHRMBAf8EAjAAMAsGA1UdDwQEAwIC9DAdBgNVHSUEFjAUBggrBgEF
BQcDAgYIKwYBBQUHAwEwUgYJYIZIAYb4QgENBEUWQ1NlbGYtc2lnbmVkIGNlcnRp
ZmljYXRlIGdlbmVyYXRlZCBieSBOb2RlLU9QQ1VBIENlcnRpZmljYXRlIHV0aWxp
dHkwMwYDVR0RBCwwKoYedXJuOk11ZGRhc2lyOk5vZGUtT1BDVUEtU2VydmVygghN
dWRkYXNpcjANBgkqhkiG9w0BAQsFAAOCAQEAREdxI8gg1ZhXTIIeK7YcsKtFeJc4
JzOTF3fJKosYrsTz850PgZnRIhBSDii+BsnWjOGY0QCLfPmO5hEISk17lAxk6GTF
0Fq7IR6tsuvgFGR4O1nlfm9JBrHkeASN1GpYQy8YuXa5wB2j79+N5tv6bsYqBZnn
17nyissMOi05IR/5qzj+1HLCADwwDBjFwaCoTcN7PlzHtn5ua8Nw+QBcpQwWhVCq
K8SY0fsMpo11bFUXFiqZ4k/w89/E8xsAMEjklArPPf15AsOlQ/mvLdDBCEP3YFtW
mRkCdtae55pO+n6LVm9my9SITQNXtSs/to6h+H9apAYSozcyjytrMO5Wrg==
-----END CERTIFICATE-----
