Certificate:
    Data:
        Version: 3 (0x2)
        Serial Number:
            22:41:70:22:eb:5c:38:d0:cc:a0:a3:0e:15:6a:86:b0:80:87:04:11
        Signature Algorithm: sha256WithRSAEncryption
        Issuer: C = FR, ST = IDF, L = Paris, O = NodeOPCUA, CN = NodeOPCUA-TEST
        Validity
            Not Before: Feb  4 15:43:50 2020 GMT
            Not After : Jan 31 15:43:50 2035 GMT
        Subject: C = FR, ST = IDF, L = Paris, O = NodeOPCUA, CN = NodeOPCUA-TEST
        Subject Public Key Info:
            Public Key Algorithm: rsaEncryption
                RSA Public-Key: (2048 bit)
                Modulus:
                    00:cf:64:1c:ed:d6:e8:a8:2e:ee:1e:cb:90:80:24:
                    34:78:e4:98:2d:cc:f2:83:f6:5d:42:30:ed:b6:cb:
                    a4:2b:c6:79:b9:4b:cc:a7:3d:75:39:0d:c3:9d:b9:
                    53:86:6e:8b:b2:95:6e:4a:d3:29:b8:55:94:da:68:
                    bd:ee:83:c0:0b:49:3c:b1:b1:d5:29:10:01:01:2a:
                    74:7c:f3:e8:5b:36:d0:06:b6:03:f4:01:bd:49:06:
                    19:a8:65:c0:5e:1a:21:de:d7:37:9d:cd:dc:f3:79:
                    e4:8f:3d:d0:b5:ee:66:88:94:07:b7:41:59:d6:51:
                    df:d5:35:af:90:6e:ce:81:3c:bf:1b:e3:2f:2a:66:
                    f6:1c:b8:04:80:fe:c0:98:f7:3e:f8:5b:4b:60:e1:
                    b7:d2:5e:43:f9:c5:fd:18:d9:55:b5:76:c7:24:29:
                    13:00:c8:de:eb:2c:8f:f3:25:73:e6:77:02:4b:cb:
                    7d:68:cb:b5:9a:c8:1f:d1:b5:1b:c1:3a:92:22:aa:
                    c3:91:e6:ea:13:aa:7d:ee:d8:0c:bd:43:93:c7:80:
                    81:9b:cb:2c:8f:9d:d4:ae:a0:7b:bd:82:f4:5b:4b:
                    98:7f:f1:85:3b:01:01:64:24:e2:c7:75:d3:be:a5:
                    ec:e0:12:41:b3:bb:7d:0a:cd:8e:5f:3c:32:3e:71:
                    f7:01
                Exponent: 65537 (0x10001)
        X509v3 extensions:
            X509v3 Subject Key Identifier: 
                D4:FE:08:E3:6C:AB:23:67:8E:03:A1:30:4F:1A:03:37:D8:BB:D9:44
            X509v3 Authority Key Identifier: 
                keyid:D4:FE:08:E3:6C:AB:23:67:8E:03:A1:30:4F:1A:03:37:D8:BB:D9:44

            X509v3 Basic Constraints: critical
                CA:FALSE
            X509v3 Key Usage: 
                Digital Signature, Non Repudiation, Key Encipherment, Data Encipherment, Certificate Sign
            X509v3 Extended Key Usage: 
                TLS Web Client Authentication, TLS Web Server Authentication
            Netscape Comment: 
                Self-signed certificate generated by Node-OPCUA Certificate utility
            X509v3 Subject Alternative Name: 
                URI:urn:Muddasir:Node-OPCUA-Server, DNS:Muddasir
    Signature Algorithm: sha256WithRSAEncryption
         75:ee:47:30:0b:6e:f7:cf:07:ad:31:8e:c4:ed:fa:7a:b0:1d:
         90:99:cf:bf:9d:d8:3a:9f:50:d9:59:33:38:44:68:03:aa:05:
         00:8f:15:07:01:e0:e9:91:d1:33:15:2e:05:a6:78:9b:ee:14:
         96:2a:99:7e:40:4b:3a:7c:e7:57:29:a3:b4:70:98:59:3f:6c:
         2e:4c:40:ed:42:47:51:3b:38:61:31:75:8c:75:08:55:7a:79:
         29:f3:e1:a2:f3:39:8a:28:98:7f:b9:1c:e4:54:3e:ea:11:b4:
         31:a6:67:82:08:a9:ad:5f:40:b3:91:a5:42:d7:50:75:5f:f8:
         d8:49:18:4f:f3:ba:0b:3a:78:ec:36:62:e0:fd:0d:50:fd:d1:
         23:56:99:77:af:cc:71:b4:9e:ad:0c:23:68:a5:23:71:ba:a7:
         3b:c6:a4:83:6c:b6:a8:2b:be:33:94:43:4b:44:bd:a7:f5:2d:
         64:92:d2:82:91:55:7f:22:bb:c2:ed:91:09:22:fc:60:fb:d0:
         40:bd:55:50:a8:0c:c0:c4:a9:b2:a6:85:4c:c6:5d:00:6d:04:
         8b:f5:88:fe:85:fa:ef:70:84:7a:e0:20:98:97:b1:a1:e8:c9:
         1f:63:d2:79:93:d3:a7:7e:a3:af:75:a4:dd:c4:d7:4c:18:38:
         ed:a6:81:3a
-----BEGIN CERTIFICATE-----
MIIERzCCAy+gAwIBAgIUIkFwIutcONDMoKMOFWqGsICHBBEwDQYJKoZIhvcNAQEL
BQAwWDELMAkGA1UEBhMCRlIxDDAKBgNVBAgMA0lERjEOMAwGA1UEBwwFUGFyaXMx
EjAQBgNVBAoMCU5vZGVPUENVQTEXMBUGA1UEAwwOTm9kZU9QQ1VBLVRFU1QwHhcN
MjAwMjA0MTU0MzUwWhcNMzUwMTMxMTU0MzUwWjBYMQswCQYDVQQGEwJGUjEMMAoG
A1UECAwDSURGMQ4wDAYDVQQHDAVQYXJpczESMBAGA1UECgwJTm9kZU9QQ1VBMRcw
FQYDVQQDDA5Ob2RlT1BDVUEtVEVTVDCCASIwDQYJKoZIhvcNAQEBBQADggEPADCC
AQoCggEBAM9kHO3W6Kgu7h7LkIAkNHjkmC3M8oP2XUIw7bbLpCvGeblLzKc9dTkN
w525U4Zui7KVbkrTKbhVlNpove6DwAtJPLGx1SkQAQEqdHzz6Fs20Aa2A/QBvUkG
GahlwF4aId7XN53N3PN55I890LXuZoiUB7dBWdZR39U1r5BuzoE8vxvjLypm9hy4
BID+wJj3PvhbS2Dht9JeQ/nF/RjZVbV2xyQpEwDI3ussj/Mlc+Z3AkvLfWjLtZrI
H9G1G8E6kiKqw5Hm6hOqfe7YDL1Dk8eAgZvLLI+d1K6ge72C9FtLmH/xhTsBAWQk
4sd1076l7OASQbO7fQrNjl88Mj5x9wECAwEAAaOCAQcwggEDMB0GA1UdDgQWBBTU
/gjjbKsjZ44DoTBPGgM32LvZRDAfBgNVHSMEGDAWgBTU/gjjbKsjZ44DoTBPGgM3
2LvZRDAMBgNVHRMBAf8EAjAAMAsGA1UdDwQEAwIC9DAdBgNVHSUEFjAUBggrBgEF
BQcDAgYIKwYBBQUHAwEwUgYJYIZIAYb4QgENBEUWQ1NlbGYtc2lnbmVkIGNlcnRp
ZmljYXRlIGdlbmVyYXRlZCBieSBOb2RlLU9QQ1VBIENlcnRpZmljYXRlIHV0aWxp
dHkwMwYDVR0RBCwwKoYedXJuOk11ZGRhc2lyOk5vZGUtT1BDVUEtU2VydmVygghN
dWRkYXNpcjANBgkqhkiG9w0BAQsFAAOCAQEAde5HMAtu988HrTGOxO36erAdkJnP
v53YOp9Q2VkzOERoA6oFAI8VBwHg6ZHRMxUuBaZ4m+4UliqZfkBLOnznVymjtHCY
WT9sLkxA7UJHUTs4YTF1jHUIVXp5KfPhovM5iiiYf7kc5FQ+6hG0MaZnggiprV9A
s5GlQtdQdV/42EkYT/O6Czp47DZi4P0NUP3RI1aZd6/McbSerQwjaKUjcbqnO8ak
g2y2qCu+M5RDS0S9p/UtZJLSgpFVfyK7wu2RCSL8YPvQQL1VUKgMwMSpsqaFTMZd
AG0Ei/WI/oX673CEeuAgmJexoejJH2PSeZPTp36jr3Wk3cTXTBg47aaBOg==
-----END CERTIFICATE-----
