Certificate:
    Data:
        Version: 3 (0x2)
        Serial Number:
            16:e5:b5:74:0d:4c:68:52:d8:b3:5e:5d:31:f3:4c:72:02:fb:7a:8c
        Signature Algorithm: sha256WithRSAEncryption
        Issuer: C = FR, ST = IDF, L = Paris, O = NodeOPCUA, CN = NodeOPCUA-TEST
        Validity
            Not Before: Feb  4 15:43:49 2020 GMT
            Not After : Jan 31 15:43:49 2035 GMT
        Subject: C = FR, ST = IDF, L = Paris, O = NodeOPCUA, CN = NodeOPCUA-TEST
        Subject Public Key Info:
            Public Key Algorithm: rsaEncryption
                RSA Public-Key: (2048 bit)
                Modulus:
                    00:d1:1c:35:3c:ea:4b:b1:97:9a:ce:ed:00:12:9c:
                    3c:42:5b:a8:78:33:49:01:ca:df:9f:af:3a:79:1b:
                    d1:53:06:5d:f3:19:d6:81:5b:45:f2:62:6f:ee:69:
                    f0:2d:00:a7:4d:87:d3:48:1a:98:4d:06:c7:ae:d3:
                    8f:60:5c:6f:f2:77:0f:ff:ef:64:94:18:3a:3e:ea:
                    39:64:6e:db:78:47:4f:79:28:c9:c6:27:6c:eb:84:
                    8a:7b:fc:12:90:24:19:70:48:cc:c3:fe:7d:c9:20:
                    8b:56:13:90:b5:d4:d1:c5:19:16:80:e7:4b:2d:4c:
                    ae:cb:af:cb:70:ac:01:69:cf:46:5f:05:4f:0e:68:
                    d0:a2:ba:51:4c:2e:e9:5d:11:6e:5b:d0:5b:68:39:
                    b2:5d:ca:04:f5:7e:50:9b:50:8c:31:88:f6:fe:a5:
                    bb:42:2c:df:93:95:27:8a:91:31:6b:a8:0f:cd:6c:
                    50:6e:60:4d:0d:cc:94:74:75:18:0b:64:02:f5:27:
                    9c:32:69:f6:5f:22:b7:9b:74:27:36:bf:ea:c8:ff:
                    0b:5e:aa:ac:c7:5b:eb:2e:38:58:a8:e9:cc:5d:1f:
                    7b:f5:64:0e:5a:80:fd:51:3c:55:7e:6c:be:1a:59:
                    69:98:58:48:fb:53:98:a2:ad:a3:62:0b:7b:17:34:
                    65:5b
                Exponent: 65537 (0x10001)
        X509v3 extensions:
            X509v3 Subject Key Identifier: 
                27:2F:D6:87:9D:A6:54:04:4F:F3:AA:53:82:6F:19:69:37:7B:3C:8B
            X509v3 Authority Key Identifier: 
                keyid:27:2F:D6:87:9D:A6:54:04:4F:F3:AA:53:82:6F:19:69:37:7B:3C:8B

            X509v3 Basic Constraints: critical
                CA:FALSE
            X509v3 Key Usage: 
                Digital Signature, Non Repudiation, Key Encipherment, Data Encipherment, Certificate Sign
            X509v3 Extended Key Usage: 
                TLS Web Client Authentication, TLS Web Server Authentication
            Netscape Comment: 
                Self-signed certificate generated by Node-OPCUA Certificate utility
            X509v3 Subject Alternative Name: 
                URI:urn:Muddasir:Node-OPCUA-Server, DNS:Muddasir
    Signature Algorithm: sha256WithRSAEncryption
         78:52:37:ff:d4:bd:6a:fa:bd:ba:32:19:55:45:33:dd:ec:c8:
         f4:14:96:c4:fa:6d:81:06:6b:64:12:c5:6c:3d:51:ed:01:e8:
         8b:8a:3c:0d:c4:18:ab:91:80:df:01:f1:49:55:5c:42:6b:bf:
         95:03:f1:96:55:c5:d0:54:c1:43:c0:44:ed:36:d8:46:35:a8:
         0c:a8:09:aa:ba:e3:f5:f0:e4:f9:cd:0e:e8:73:6f:8c:aa:3a:
         f2:ec:90:a8:bf:1f:de:2b:ce:50:df:97:e7:2b:cf:71:e9:4e:
         d5:1b:76:85:27:1c:89:f3:6f:54:9b:71:6d:b9:4b:43:9a:a5:
         da:82:96:41:4b:bb:6e:60:4a:46:25:c3:a2:e4:2c:65:7a:ba:
         68:8b:f6:bf:6f:1b:e9:23:5d:13:54:7a:3f:59:84:dd:a0:05:
         04:31:de:e7:28:dd:60:44:88:86:3e:7d:51:03:a3:bf:a4:e3:
         a8:7d:8d:6a:fd:59:af:fe:f3:f5:ea:21:27:68:c4:1b:45:c6:
         2a:ea:ae:0c:ea:bd:03:b8:25:df:6f:e7:a9:66:d5:b3:12:42:
         6f:d2:3d:0f:e9:04:62:ad:fb:6e:b5:8b:0a:1a:de:93:d5:d1:
         4d:fa:97:8e:9f:62:de:c2:55:c8:e0:89:9b:8d:85:84:0e:ed:
         c2:6c:bd:05
-----BEGIN CERTIFICATE-----
MIIERzCCAy+gAwIBAgIUFuW1dA1MaFLYs15dMfNMcgL7eowwDQYJKoZIhvcNAQEL
BQAwWDELMAkGA1UEBhMCRlIxDDAKBgNVBAgMA0lERjEOMAwGA1UEBwwFUGFyaXMx
EjAQBgNVBAoMCU5vZGVPUENVQTEXMBUGA1UEAwwOTm9kZU9QQ1VBLVRFU1QwHhcN
MjAwMjA0MTU0MzQ5WhcNMzUwMTMxMTU0MzQ5WjBYMQswCQYDVQQGEwJGUjEMMAoG
A1UECAwDSURGMQ4wDAYDVQQHDAVQYXJpczESMBAGA1UECgwJTm9kZU9QQ1VBMRcw
FQYDVQQDDA5Ob2RlT1BDVUEtVEVTVDCCASIwDQYJKoZIhvcNAQEBBQADggEPADCC
AQoCggEBANEcNTzqS7GXms7tABKcPEJbqHgzSQHK35+vOnkb0VMGXfMZ1oFbRfJi
b+5p8C0Ap02H00gamE0Gx67Tj2Bcb/J3D//vZJQYOj7qOWRu23hHT3koycYnbOuE
inv8EpAkGXBIzMP+fckgi1YTkLXU0cUZFoDnSy1Mrsuvy3CsAWnPRl8FTw5o0KK6
UUwu6V0RblvQW2g5sl3KBPV+UJtQjDGI9v6lu0Is35OVJ4qRMWuoD81sUG5gTQ3M
lHR1GAtkAvUnnDJp9l8it5t0Jza/6sj/C16qrMdb6y44WKjpzF0fe/VkDlqA/VE8
VX5svhpZaZhYSPtTmKKto2ILexc0ZVsCAwEAAaOCAQcwggEDMB0GA1UdDgQWBBQn
L9aHnaZUBE/zqlOCbxlpN3s8izAfBgNVHSMEGDAWgBQnL9aHnaZUBE/zqlOCbxlp
N3s8izAMBgNVHRMBAf8EAjAAMAsGA1UdDwQEAwIC9DAdBgNVHSUEFjAUBggrBgEF
BQcDAgYIKwYBBQUHAwEwUgYJYIZIAYb4QgENBEUWQ1NlbGYtc2lnbmVkIGNlcnRp
ZmljYXRlIGdlbmVyYXRlZCBieSBOb2RlLU9QQ1VBIENlcnRpZmljYXRlIHV0aWxp
dHkwMwYDVR0RBCwwKoYedXJuOk11ZGRhc2lyOk5vZGUtT1BDVUEtU2VydmVygghN
dWRkYXNpcjANBgkqhkiG9w0BAQsFAAOCAQEAeFI3/9S9avq9ujIZVUUz3ezI9BSW
xPptgQZrZBLFbD1R7QHoi4o8DcQYq5GA3wHxSVVcQmu/lQPxllXF0FTBQ8BE7TbY
RjWoDKgJqrrj9fDk+c0O6HNvjKo68uyQqL8f3ivOUN+X5yvPcelO1Rt2hSccifNv
VJtxbblLQ5ql2oKWQUu7bmBKRiXDouQsZXq6aIv2v28b6SNdE1R6P1mE3aAFBDHe
5yjdYESIhj59UQOjv6TjqH2Nav1Zr/7z9eohJ2jEG0XGKuquDOq9A7gl32/nqWbV
sxJCb9I9D+kEYq37brWLChrek9XRTfqXjp9i3sJVyOCJm42FhA7twmy9BQ==
-----END CERTIFICATE-----
